target datalayout = "e-m:e-p270:32:32-p271:32:32-p272:64:64-i64:64-i128:128-f80:128-n8:16:32:64-S128"
target triple = "x86_64-pc-linux-gnu"

%"struct.pxrInternal_v0_24__pxrReserved__::HgiShaderFunctionComputeDesc" = type { %"class.pxrInternal_v0_24__pxrReserved__::GfVec3i" }
%"class.pxrInternal_v0_24__pxrReserved__::GfVec3i" = type { [3 x i32] }

; Function Attrs: mustprogress nounwind uwtable
define linkonce_odr noundef nonnull align 4 dereferenceable(4) ptr @_ZNK32pxrInternal_v0_24__pxrReserved__7GfVec3iixEm(ptr noundef nonnull align 4 dereferenceable(12) %0, i64 noundef %1) #0 comdat align 2 {
  %3 = alloca ptr, align 8
  %4 = alloca i64, align 8
  store ptr %0, ptr %3, align 8
  store i64 %1, ptr %4, align 8
  %5 = load ptr, ptr %3, align 8
  %6 = getelementptr inbounds nuw %"class.pxrInternal_v0_24__pxrReserved__::GfVec3i", ptr %5, i32 0, i32 0
  %7 = load i64, ptr %4, align 8
  %8 = getelementptr inbounds [3 x i32], ptr %6, i64 0, i64 %7
  ret ptr %8
}

; Function Attrs: mustprogress uwtable
define linkonce_odr noundef zeroext i1 @_ZNK32pxrInternal_v0_24__pxrReserved__7GfVec3ieqERKS0_(ptr noundef nonnull align 4 dereferenceable(12) %0, ptr noundef nonnull align 4 dereferenceable(12) %1) #2 comdat align 2 {
  %3 = alloca ptr, align 8
  %4 = alloca ptr, align 8
  store ptr %0, ptr %3, align 8
  store ptr %1, ptr %4, align 8
  %5 = load ptr, ptr %3, align 8
  %6 = getelementptr inbounds nuw %"class.pxrInternal_v0_24__pxrReserved__::GfVec3i", ptr %5, i32 0, i32 0
  %7 = getelementptr inbounds [3 x i32], ptr %6, i64 0, i64 0
  %8 = load i32, ptr %7, align 4
  %9 = load ptr, ptr %4, align 8
  %10 = call noundef nonnull align 4 dereferenceable(4) ptr @_ZNK32pxrInternal_v0_24__pxrReserved__7GfVec3iixEm(ptr noundef nonnull align 4 dereferenceable(12) %9, i64 noundef 0)
  %11 = load i32, ptr %10, align 4
  %12 = icmp eq i32 %8, %11
  br i1 %12, label %13, label %29

13:                                               ; preds = %2
  %14 = getelementptr inbounds nuw %"class.pxrInternal_v0_24__pxrReserved__::GfVec3i", ptr %5, i32 0, i32 0
  %15 = getelementptr inbounds [3 x i32], ptr %14, i64 0, i64 1
  %16 = load i32, ptr %15, align 4
  %17 = load ptr, ptr %4, align 8
  %18 = call noundef nonnull align 4 dereferenceable(4) ptr @_ZNK32pxrInternal_v0_24__pxrReserved__7GfVec3iixEm(ptr noundef nonnull align 4 dereferenceable(12) %17, i64 noundef 1)
  %19 = load i32, ptr %18, align 4
  %20 = icmp eq i32 %16, %19
  br i1 %20, label %21, label %29

21:                                               ; preds = %13
  %22 = getelementptr inbounds nuw %"class.pxrInternal_v0_24__pxrReserved__::GfVec3i", ptr %5, i32 0, i32 0
  %23 = getelementptr inbounds [3 x i32], ptr %22, i64 0, i64 2
  %24 = load i32, ptr %23, align 4
  %25 = load ptr, ptr %4, align 8
  %26 = call noundef nonnull align 4 dereferenceable(4) ptr @_ZNK32pxrInternal_v0_24__pxrReserved__7GfVec3iixEm(ptr noundef nonnull align 4 dereferenceable(12) %25, i64 noundef 2)
  %27 = load i32, ptr %26, align 4
  %28 = icmp eq i32 %24, %27
  br label %29

29:                                               ; preds = %21, %13, %2
  %30 = phi i1 [ false, %13 ], [ false, %2 ], [ %28, %21 ]
  ret i1 %30
}

; Function Attrs: mustprogress uwtable
define noundef zeroext i1 @_ZN32pxrInternal_v0_24__pxrReserved__eqERKNS_28HgiShaderFunctionComputeDescES2_(ptr noundef nonnull align 4 dereferenceable(12) %0, ptr noundef nonnull align 4 dereferenceable(12) %1) #2 {
  %3 = alloca ptr, align 8
  %4 = alloca ptr, align 8
  store ptr %0, ptr %3, align 8
  store ptr %1, ptr %4, align 8
  %5 = load ptr, ptr %3, align 8
  %6 = getelementptr inbounds nuw %"struct.pxrInternal_v0_24__pxrReserved__::HgiShaderFunctionComputeDesc", ptr %5, i32 0, i32 0
  %7 = load ptr, ptr %4, align 8
  %8 = getelementptr inbounds nuw %"struct.pxrInternal_v0_24__pxrReserved__::HgiShaderFunctionComputeDesc", ptr %7, i32 0, i32 0
  %9 = call noundef zeroext i1 @_ZNK32pxrInternal_v0_24__pxrReserved__7GfVec3ieqERKS0_(ptr noundef nonnull align 4 dereferenceable(12) %6, ptr noundef nonnull align 4 dereferenceable(12) %8)
  ret i1 %9
}